(dp0
Vengine
p1
Vpdflatex
p2
sVsynctex
p3
I01
sVpackages
p4
c__builtin__
set
p5
((lp6
Vtikz
p7
aVxcolor
p8
aVtextpos
p9
aVlistings
p10
aVcolortbl
p11
aVxmpmulti
p12
aVepigraph
p13
aVulem
p14
atp15
Rp16
sVfiles_with_guttermarks
p17
g5
((lp18
S'13-pd2.tex'
p19
atp20
Rp21
s.